; Function Attrs: mustprogress uwtable
define void @_ZN12FilterSSynth7openX3DERK7QStringR9MeshModelRiPFbiPKcEP7QWidget(ptr noundef nonnull align 8 dereferenceable(8) %0, ptr noundef nonnull align 8 dereferenceable(1288) %1, ptr nocapture noundef nonnull writeonly align 4 dereferenceable(4) %2, ptr noundef %3, ptr nocapture readnone %4) local_unnamed_addr #9 align 2 personality ptr @__gxx_personality_v0 {
  %6 = alloca ptr, align 8
  %7 = alloca %"class.std::__cxx11::basic_string", align 8
  %8 = alloca %"class.std::__cxx11::basic_string", align 8
  store ptr null, ptr %6, align 8
  call void @_ZNK7QString11toStdStringB5cxx11Ev(ptr dead_on_unwind nonnull writable sret(%"class.std::__cxx11::basic_string") align 8 %7, ptr noundef nonnull align 8 dereferenceable(8) %0)
  %9 = call noundef ptr @_ZNKSt7__cxx1112basic_stringIcSt11char_traitsIcESaIcEE5c_strEv(ptr noundef nonnull align 8 dereferenceable(32) %7) #29
  %10 = invoke noundef i32 @_ZN3vcg3tri2io11ImporterX3DI6CMeshOE8LoadMaskEPKcRPNS1_17AdditionalInfoX3DE(ptr noundef %9, ptr noundef nonnull align 8 dereferenceable(8) %6)
          to label %11 unwind label %24

11:                                               ; preds = %5
  call void @_ZNSt7__cxx1112basic_stringIcSt11char_traitsIcESaIcEED1Ev(ptr noundef nonnull align 8 dereferenceable(32) %7) #29
  %12 = load ptr, ptr %6, align 8
  %13 = getelementptr inbounds i8, ptr %12, i64 16
  %14 = load i32, ptr %13, align 8
  call void @_ZN9MeshModel6enableEi(ptr noundef nonnull align 8 dereferenceable(1288) %1, i32 noundef %14)
  call void @_ZNK7QString11toStdStringB5cxx11Ev(ptr dead_on_unwind nonnull writable sret(%"class.std::__cxx11::basic_string") align 8 %8, ptr noundef nonnull align 8 dereferenceable(8) %0)
  %15 = call noundef ptr @_ZNKSt7__cxx1112basic_stringIcSt11char_traitsIcESaIcEE5c_strEv(ptr noundef nonnull align 8 dereferenceable(32) %8) #29
  %16 = invoke noundef i32 @_ZN3vcg3tri2io11ImporterX3DI6CMeshOE4OpenERS3_PKcRPNS1_17AdditionalInfoX3DEPFbiS7_E(ptr noundef nonnull align 8 dereferenceable(1196) %1, ptr noundef %15, ptr noundef nonnull align 8 dereferenceable(8) %6, ptr noundef %3)
          to label %17 unwind label %26

17:                                               ; preds = %11
  call void @_ZNSt7__cxx1112basic_stringIcSt11char_traitsIcESaIcEED1Ev(ptr noundef nonnull align 8 dereferenceable(32) %8) #29
  call void @_ZN9MeshModel19updateBoxAndNormalsEv(ptr noundef nonnull align 8 dereferenceable(1288) %1)
  %18 = load ptr, ptr %6, align 8
  %19 = getelementptr inbounds i8, ptr %18, i64 16
  %20 = load i32, ptr %19, align 8
  store i32 %20, ptr %2, align 4
  %21 = load ptr, ptr %18, align 8
  %22 = getelementptr inbounds i8, ptr %21, i64 8
  %23 = load ptr, ptr %22, align 8
  call void %23(ptr noundef nonnull align 8 dereferenceable(269) %18) #29
  ret void

24:                                               ; preds = %5
  %25 = landingpad { ptr, i32 }
          cleanup
  br label %28

26:                                               ; preds = %11
  %27 = landingpad { ptr, i32 }
          cleanup
  br label %28

28:                                               ; preds = %26, %24
  %.sink = phi ptr [ %8, %26 ], [ %7, %24 ]
  %.pn = phi { ptr, i32 } [ %27, %26 ], [ %25, %24 ]
  call void @_ZNSt7__cxx1112basic_stringIcSt11char_traitsIcESaIcEED1Ev(ptr noundef nonnull align 8 dereferenceable(32) %.sink) #29
  resume { ptr, i32 } %.pn
}